ccopy_reg
_reconstructor
p0
(csets
Set
p1
c__builtin__
object
p2
Ntp3
Rp4
((dp5
V/blogs/boise/2016/nov/16/idaho-business-leaders-praise-china-trade-mission/
p6
I01
sV/blogs/boise/2016/nov/22/state-agencies-out-luck-auction-endowment-owned-commercial-properties/
p7
I01
sV/blogs/boise/2016/nov/17/new-federal-lawsuit-charges-idahos-paternity-laws-discriminate-against-same-sex-parents-kids/
p8
I01
sV/blogs/boise/2016/nov/22/health-gap-group-wraps-work-unanimous-vote-calls-action-17-legislature/
p9
I01
sV/blogs/boise/2016/nov/22/massive-project-proposed-remove-juniper-trees-idaho/
p10
I01
sV/blogs/boise/2016/nov/15/otter-conference-hawaii-denney-presiding-over-todays-land-board-meeting/
p11
I01
sV/blogs/boise/2016/nov/21/search-warrants-potato-pest-ordered-e-idaho-farms/
p12
I01
sV/blogs/boise/2016/nov/18/idaho-reports-session-ahead-elections-wake/
p13
I01
sV/blogs/boise/2016/nov/22/otter-names-new-state-appellate-public-defender/
p14
I01
sV/blogs/boise/2016/nov/21/idaho-company-considers-future-pocatello-hub-freight-drones/
p15
I01
sV/blogs/boise/2016/nov/22/panels-recommendation-17-legislature-should-do-something-gap-not-clear-what/
p16
I01
sV/blogs/boise/2016/nov/17/14-former-idaho-fish-game-commissioners-send-letter-legislative-leaders-pressing-new-senate-resources-chair/
p17
I01
sV/blogs/boise/2016/nov/21/itd-adopts-new-megaload-rules-scenic-highway-12-despite-injunction-link-full-story/
p18
I01
sV/blogs/boise/2016/nov/18/officials-4-states-3-canadian-provinces-gather-boise-address-new-invasive-mussel-finding-montana/
p19
I01
sV/blogs/boise/2016/nov/21/articles-explore-role-bannons-breitbart-news-fanning-fears-refugees-chobani-twin-falls/
p20
I01
sV/blogs/boise/2016/nov/21/governors-mansions-and-dwindling-funds/
p21
I01
sV/blogs/boise/2016/nov/22/lawmakers-ideas-include-expanding-traditional-medicaid-certain-populations-or-primary-care-program/
p22
I01
sV/blogs/boise/2016/nov/22/lawmakers-weigh-options-gap-population-listen-live/
p23
I01
sV/blogs/boise/2016/nov/16/senators-ponder-how-much-do-lame-duck-session-nye-nomination-ready/
p24
I01
sV/blogs/boise/2016/nov/21/secretary-state-idaho-gop-did-not-violate-campaign-laws/
p25
I01
sV/blogs/boise/2016/nov/18/idahos-unemployment-rate-holds-steady-38-4th-consecutive-month/
p26
I01
sV/blogs/boise/2016/nov/17/officials-weigh-removing-yellowstone-grizzlies-endangered-list/
p27
I01
sV/blogs/boise/2016/nov/18/state-sets-auction-nine-commercial-properties-dec-1/
p28
I01
sV/blogs/boise/2016/nov/18/sen-hill-defends-bair-against-criticism-14-former-fish-game-commissioners/
p29
I01
sV/blogs/boise/2016/nov/16/number-women-idaho-legislature-going-two-29-31/
p30
I01
stp31
b.