ccopy_reg
_reconstructor
p0
(csets
Set
p1
c__builtin__
object
p2
Ntp3
Rp4
((dp5
Vhttp://www.spokesman.com/blogs/boise/2016/nov/22/massive-project-proposed-remove-juniper-trees-idaho/
p6
I01
sVhttp://www.spokesman.com/blogs/boise/2016/dec/05/sen-crapo-again-head-committee-committees/
p7
I01
sVhttp://www.spokesman.com/blogs/boise/2016/nov/21/secretary-state-idaho-gop-did-not-violate-campaign-laws/
p8
I01
sVhttp://www.spokesman.com/blogs/boise/2016/dec/01/idaho-legislature-shuffles-committee-posts-gears-session/
p9
I01
sVhttp://www.idahostatesman.com/news/politics-government/state-politics/article116439288.html#navlink=SecList
p10
I01
sVhttp://www.spokesman.com/blogs/boise/2016/dec/01/senate-wraps-organizational-session-announces-full-list-committees-chairs/
p11
I01
sVhttp://www.spokesman.com/blogs/boise/2016/dec/05/idaho-suicide-prevention-hotline-expands-services/
p12
I01
sVhttp://www.spokesman.com/blogs/boise/2016/nov/22/state-agencies-out-luck-auction-endowment-owned-commercial-properties/
p13
I01
sVhttp://www.spokesman.com/blogs/boise/2016/nov/22/otter-names-new-state-appellate-public-defender/
p14
I01
sVhttp://www.spokesman.com/blogs/boise/2016/dec/02/idaho-lawmakers-consider-changing-asset-forfeiture-laws/
p15
I01
sVhttp://www.spokesman.com/blogs/boise/2016/dec/06/voter-approved-supplemental-levies-schools-hit-all-time-high-1888m/
p16
I01
sVhttp://www.spokesman.com/blogs/boise/2016/dec/06/state-employee-pay-still-lags-despite-years-3-merit-raises/
p17
I01
sVhttp://www.spokesman.com/blogs/boise/2016/dec/02/denney-proposing-sunshine-law-changes-including-increasing-penalties/
p18
I01
sVhttp://www.idahostatesman.com/news/politics-government/state-politics/article118037838.html#navlink=SecList
p19
I01
sVhttp://www.spokesman.com/blogs/boise/2016/dec/01/some-house-committee-chairmanships-shuffled/
p20
I01
sVhttp://www.spokesman.com/blogs/boise/2016/nov/21/itd-adopts-new-megaload-rules-scenic-highway-12-despite-injunction-link-full-story/
p21
I01
sVhttp://www.idahostatesman.com/news/politics-government/state-politics/article117083733.html#navlink=Lead
p22
I01
sVhttp://www.spokesman.com/blogs/boise/2016/nov/22/panels-recommendation-17-legislature-should-do-something-gap-not-clear-what/
p23
I01
sVhttp://www.idahostatesman.com/news/politics-government/state-politics/article116138613.html#navlink=SecList
p24
I01
sVhttp://www.spokesman.com/blogs/boise/2016/dec/01/idaho-dept-lands-auctions-seven-commercial-properties-including-affordable-storage/
p25
I01
sVhttp://www.spokesman.com/blogs/boise/2016/dec/05/idaho-unemployment-insurance-tax-rate-drop-second-straight-year/
p26
I01
sVhttp://www.spokesman.com/blogs/boise/2016/nov/21/idaho-company-considers-future-pocatello-hub-freight-drones/
p27
I01
sVhttp://www.spokesman.com/blogs/boise/2016/nov/21/articles-explore-role-bannons-breitbart-news-fanning-fears-refugees-chobani-twin-falls/
p28
I01
sVhttp://www.spokesman.com/blogs/boise/2016/dec/01/johnson-chair-senate-tax-committee-bair-staying-resources-7-new-senate-members-jfac/
p29
I01
sVhttp://www.spokesman.com/blogs/boise/2016/dec/02/senate-minority-chief-staff-diane-kelly-dies-cancer/
p30
I01
sVhttp://www.spokesman.com/blogs/boise/2016/dec/05/audit-shows-widespread-errors-state-teacher-evaluations/
p31
I01
sVhttp://www.spokesman.com/blogs/boise/2016/dec/05/otter-appoints-nancy-baskin-4th-district-judge/
p32
I01
sVhttp://www.spokesman.com/blogs/boise/2016/dec/06/us-announces-plan-build-16b-e-idaho-facility-warships-nuclear-waste/
p33
I01
sVhttp://www.idahostatesman.com/news/politics-government/state-politics/article117715488.html#navlink=SecList
p34
I01
sVhttp://www.spokesman.com/blogs/boise/2016/nov/21/search-warrants-potato-pest-ordered-e-idaho-farms/
p35
I01
sVhttp://www.idahostatesman.com/news/politics-government/state-politics/article117697108.html#navlink=SecList
p36
I01
sVhttp://www.spokesman.com/blogs/boise/2016/dec/06/legislative-panel-hold-hearings-requests-another-panels-already-tabbed-health-gap/
p37
I01
sVhttp://www.spokesman.com/blogs/boise/2016/dec/05/idaho-prisons-director-resigns-lead-national-organization/
p38
I01
sVhttp://www.spokesman.com/blogs/boise/2016/dec/01/house-wraps-announces-committee-assignments-chairmanships/
p39
I01
sVhttp://www.spokesman.com/blogs/boise/2016/dec/06/wasden-says-new-navy-warship-waste-facility-inl-complies-agreement-he-supports-it/
p40
I01
sVhttp://www.idahostatesman.com/news/politics-government/state-politics/article118018768.html#navlink=SecList
p41
I01
sVhttp://www.spokesman.com/blogs/boise/2016/nov/22/health-gap-group-wraps-work-unanimous-vote-calls-action-17-legislature/
p42
I01
sVhttp://www.spokesman.com/blogs/boise/2016/nov/22/lawmakers-ideas-include-expanding-traditional-medicaid-certain-populations-or-primary-care-program/
p43
I01
sVhttp://www.idahostatesman.com/news/politics-government/state-politics/article117958578.html#navlink=SecList
p44
I01
stp45
b.