ccopy_reg
_reconstructor
p0
(csets
Set
p1
c__builtin__
object
p2
Ntp3
Rp4
((dp5
Vhttp://www.spokesman.com/blogs/boise/2016/nov/22/panels-recommendation-17-legislature-should-do-something-gap-not-clear-what/
p6
I01
sVhttp://www.spokesman.com/blogs/boise/2016/nov/22/otter-names-new-state-appellate-public-defender/
p7
I01
sVhttp://www.spokesman.com/blogs/boise/2016/nov/21/search-warrants-potato-pest-ordered-e-idaho-farms/
p8
I01
sVhttp://www.idahostatesman.com/news/politics-government/state-politics/article116138613.html#navlink=SecList
p9
I01
sVhttp://www.spokesman.com/blogs/boise/2016/nov/22/health-gap-group-wraps-work-unanimous-vote-calls-action-17-legislature/
p10
I01
sVhttp://www.spokesman.com/blogs/boise/2016/nov/21/secretary-state-idaho-gop-did-not-violate-campaign-laws/
p11
I01
sVhttp://www.spokesman.com/blogs/boise/2016/nov/21/idaho-company-considers-future-pocatello-hub-freight-drones/
p12
I01
sVhttp://www.spokesman.com/blogs/boise/2016/nov/21/articles-explore-role-bannons-breitbart-news-fanning-fears-refugees-chobani-twin-falls/
p13
I01
sVhttp://www.spokesman.com/blogs/boise/2016/nov/21/itd-adopts-new-megaload-rules-scenic-highway-12-despite-injunction-link-full-story/
p14
I01
sVhttp://www.spokesman.com/blogs/boise/2016/nov/22/massive-project-proposed-remove-juniper-trees-idaho/
p15
I01
sVhttp://www.idahostatesman.com/news/politics-government/state-politics/article116439288.html#navlink=SecList
p16
I01
sVhttp://www.spokesman.com/blogs/boise/2016/nov/22/state-agencies-out-luck-auction-endowment-owned-commercial-properties/
p17
I01
sVhttp://www.idahostatesman.com/news/politics-government/state-politics/article117083733.html#navlink=Lead
p18
I01
sVhttp://www.spokesman.com/blogs/boise/2016/nov/22/lawmakers-ideas-include-expanding-traditional-medicaid-certain-populations-or-primary-care-program/
p19
I01
stp20
b.